target datalayout = "e-m:e-p270:32:32-p271:32:32-p272:64:64-i64:64-i128:128-f80:128-n8:16:32:64-S128"
target triple = "x86_64-pc-linux-gnu"

%"class.std::__cxx11::basic_string" = type { %"struct.std::__cxx11::basic_string<char>::_Alloc_hider", i64, %union.anon }
%"struct.std::__cxx11::basic_string<char>::_Alloc_hider" = type { ptr }
%union.anon = type { i64, [8 x i8] }
%"class.std::allocator" = type { i8 }
%"class.Ipopt::LibraryLoader" = type { %"class.Ipopt::ReferencedObject.base", %"class.std::__cxx11::basic_string", ptr }
%"class.Ipopt::ReferencedObject.base" = type <{ ptr, i32 }>

@.str.1 = private unnamed_addr constant [27 x i8] c"Common/IpLibraryLoader.cpp\00", align 1
@_ZTIN5Ipopt23DYNAMIC_LIBRARY_FAILUREE = linkonce_odr constant { ptr, ptr, ptr } { ptr getelementptr inbounds (ptr, ptr @_ZTVN10__cxxabiv120__si_class_type_infoE, i64 2), ptr @_ZTSN5Ipopt23DYNAMIC_LIBRARY_FAILUREE, ptr @_ZTIN5Ipopt14IpoptExceptionE }, comdat, align 8

; Function Attrs: mustprogress uwtable
define noundef ptr @_ZN5Ipopt13LibraryLoader10loadSymbolERKNSt7__cxx1112basic_stringIcSt11char_traitsIcESaIcEEE(ptr noundef nonnull align 8 dereferenceable(56) %0, ptr noundef nonnull align 8 dereferenceable(32) %1) #0 align 2 personality ptr @__gxx_personality_v0 {
  %3 = alloca ptr, align 8
  %4 = alloca ptr, align 8
  %5 = alloca i64, align 8
  %6 = alloca ptr, align 8
  %7 = alloca ptr, align 8
  %8 = alloca i32, align 4
  %9 = alloca i64, align 8
  %10 = alloca i64, align 8
  %11 = alloca %"class.std::__cxx11::basic_string", align 8
  %12 = alloca %"class.std::allocator", align 1
  %13 = alloca ptr, align 8
  %14 = alloca i32, align 4
  %15 = alloca %"class.std::__cxx11::basic_string", align 8
  %16 = alloca %"class.std::allocator", align 1
  %17 = alloca i1, align 1
  store ptr %0, ptr %3, align 8
  store ptr %1, ptr %4, align 8
  %18 = load ptr, ptr %3, align 8
  %19 = getelementptr inbounds %"class.Ipopt::LibraryLoader", ptr %18, i32 0, i32 2
  %20 = load ptr, ptr %19, align 8
  %21 = icmp eq ptr %20, null
  br i1 %21, label %22, label %23

22:                                               ; preds = %2
  call void @_ZN5Ipopt13LibraryLoader11loadLibraryEv(ptr noundef nonnull align 8 dereferenceable(56) %18)
  br label %23

23:                                               ; preds = %22, %2
  %24 = load ptr, ptr %4, align 8
  %25 = call noundef i64 @_ZNKSt7__cxx1112basic_stringIcSt11char_traitsIcESaIcEE4sizeEv(ptr noundef nonnull align 8 dereferenceable(32) %24) #10
  store i64 %25, ptr %5, align 8
  %26 = load ptr, ptr %4, align 8
  %27 = call noundef i64 @_ZNKSt7__cxx1112basic_stringIcSt11char_traitsIcESaIcEE4sizeEv(ptr noundef nonnull align 8 dereferenceable(32) %26) #10
  %28 = add i64 %27, 2
  %29 = call noalias noundef nonnull ptr @_Znam(i64 noundef %28) #12
  store ptr %29, ptr %6, align 8
  store ptr null, ptr %7, align 8
  store i32 1, ptr %8, align 4
  br label %30

30:                                               ; preds = %110, %23
  %31 = load i32, ptr %8, align 4
  %32 = icmp sle i32 %31, 6
  br i1 %32, label %33, label %113

33:                                               ; preds = %30
  %34 = load i32, ptr %8, align 4
  switch i32 %34, label %100 [
    i32 1, label %35
    i32 2, label %41
    i32 3, label %49
    i32 4, label %69
    i32 5, label %73
    i32 6, label %96
  ]

35:                                               ; preds = %33
  %36 = load ptr, ptr %6, align 8
  %37 = load ptr, ptr %4, align 8
  %38 = call noundef ptr @_ZNKSt7__cxx1112basic_stringIcSt11char_traitsIcESaIcEE5c_strEv(ptr noundef nonnull align 8 dereferenceable(32) %37) #10
  %39 = load i64, ptr %5, align 8
  %40 = add i64 %39, 1
  call void @llvm.memcpy.p0.p0.i64(ptr align 1 %36, ptr align 1 %38, i64 %40, i1 false)
  br label %101

41:                                               ; preds = %33
  %42 = load ptr, ptr %6, align 8
  %43 = load i64, ptr %5, align 8
  %44 = getelementptr inbounds i8, ptr %42, i64 %43
  store i8 95, ptr %44, align 1
  %45 = load ptr, ptr %6, align 8
  %46 = load i64, ptr %5, align 8
  %47 = add i64 %46, 1
  %48 = getelementptr inbounds i8, ptr %45, i64 %47
  store i8 0, ptr %48, align 1
  br label %101

49:                                               ; preds = %33
  store i64 0, ptr %9, align 8
  br label %50

50:                                               ; preds = %65, %49
  %51 = load i64, ptr %9, align 8
  %52 = load i64, ptr %5, align 8
  %53 = icmp ult i64 %51, %52
  br i1 %53, label %54, label %68

54:                                               ; preds = %50
  %55 = load ptr, ptr %6, align 8
  %56 = load i64, ptr %9, align 8
  %57 = getelementptr inbounds i8, ptr %55, i64 %56
  %58 = load i8, ptr %57, align 1
  %59 = sext i8 %58 to i32
  %60 = call i32 @tolower(i32 noundef %59) #13
  %61 = trunc i32 %60 to i8
  %62 = load ptr, ptr %6, align 8
  %63 = load i64, ptr %9, align 8
  %64 = getelementptr inbounds i8, ptr %62, i64 %63
  store i8 %61, ptr %64, align 1
  br label %65

65:                                               ; preds = %54
  %66 = load i64, ptr %9, align 8
  %67 = add i64 %66, 1
  store i64 %67, ptr %9, align 8
  br label %50, !llvm.loop !4

68:                                               ; preds = %50
  br label %101

69:                                               ; preds = %33
  %70 = load ptr, ptr %6, align 8
  %71 = load i64, ptr %5, align 8
  %72 = getelementptr inbounds i8, ptr %70, i64 %71
  store i8 0, ptr %72, align 1
  br label %101

73:                                               ; preds = %33
  store i64 0, ptr %10, align 8
  br label %74

74:                                               ; preds = %89, %73
  %75 = load i64, ptr %10, align 8
  %76 = load i64, ptr %5, align 8
  %77 = icmp ult i64 %75, %76
  br i1 %77, label %78, label %92

78:                                               ; preds = %74
  %79 = load ptr, ptr %6, align 8
  %80 = load i64, ptr %10, align 8
  %81 = getelementptr inbounds i8, ptr %79, i64 %80
  %82 = load i8, ptr %81, align 1
  %83 = sext i8 %82 to i32
  %84 = call i32 @toupper(i32 noundef %83) #13
  %85 = trunc i32 %84 to i8
  %86 = load ptr, ptr %6, align 8
  %87 = load i64, ptr %10, align 8
  %88 = getelementptr inbounds i8, ptr %86, i64 %87
  store i8 %85, ptr %88, align 1
  br label %89

89:                                               ; preds = %78
  %90 = load i64, ptr %10, align 8
  %91 = add i64 %90, 1
  store i64 %91, ptr %10, align 8
  br label %74, !llvm.loop !6

92:                                               ; preds = %74
  %93 = load ptr, ptr %6, align 8
  %94 = load i64, ptr %5, align 8
  %95 = getelementptr inbounds i8, ptr %93, i64 %94
  store i8 95, ptr %95, align 1
  br label %101

96:                                               ; preds = %33
  %97 = load ptr, ptr %6, align 8
  %98 = load i64, ptr %5, align 8
  %99 = getelementptr inbounds i8, ptr %97, i64 %98
  store i8 0, ptr %99, align 1
  br label %101

100:                                              ; preds = %33
  br label %101

101:                                              ; preds = %100, %96, %92, %69, %68, %41, %35
  %102 = getelementptr inbounds %"class.Ipopt::LibraryLoader", ptr %18, i32 0, i32 2
  %103 = load ptr, ptr %102, align 8
  %104 = load ptr, ptr %6, align 8
  %105 = call ptr @dlsym(ptr noundef %103, ptr noundef %104) #10
  store ptr %105, ptr %7, align 8
  %106 = load ptr, ptr %7, align 8
  %107 = icmp ne ptr %106, null
  br i1 %107, label %108, label %109

108:                                              ; preds = %101
  br label %113

109:                                              ; preds = %101
  br label %110

110:                                              ; preds = %109
  %111 = load i32, ptr %8, align 4
  %112 = add nsw i32 %111, 1
  store i32 %112, ptr %8, align 4
  br label %30, !llvm.loop !7

113:                                              ; preds = %108, %30
  %114 = load ptr, ptr %6, align 8
  %115 = icmp eq ptr %114, null
  br i1 %115, label %117, label %116

116:                                              ; preds = %113
  call void @_ZdaPv(ptr noundef %114) #14
  br label %117

117:                                              ; preds = %116, %113
  %118 = load ptr, ptr %7, align 8
  %119 = icmp eq ptr %118, null
  br i1 %119, label %120, label %143

120:                                              ; preds = %117
  store i1 true, ptr %17, align 1
  %121 = call ptr @__cxa_allocate_exception(i64 112) #10
  %122 = call ptr @dlerror() #10
  call void @_ZNSaIcEC1Ev(ptr noundef nonnull align 1 dereferenceable(1) %12) #10
  invoke void @_ZNSt7__cxx1112basic_stringIcSt11char_traitsIcESaIcEEC2IS3_EEPKcRKS3_(ptr noundef nonnull align 8 dereferenceable(32) %11, ptr noundef %122, ptr noundef nonnull align 1 dereferenceable(1) %12)
          to label %123 unwind label %126

123:                                              ; preds = %120
  call void @_ZNSaIcEC1Ev(ptr noundef nonnull align 1 dereferenceable(1) %16) #10
  invoke void @_ZNSt7__cxx1112basic_stringIcSt11char_traitsIcESaIcEEC2IS3_EEPKcRKS3_(ptr noundef nonnull align 8 dereferenceable(32) %15, ptr noundef @.str.1, ptr noundef nonnull align 1 dereferenceable(1) %16)
          to label %124 unwind label %130

124:                                              ; preds = %123
  invoke void @_ZN5Ipopt23DYNAMIC_LIBRARY_FAILUREC2ERKNSt7__cxx1112basic_stringIcSt11char_traitsIcESaIcEEES8_i(ptr noundef nonnull align 8 dereferenceable(112) %121, ptr noundef nonnull align 8 dereferenceable(32) %11, ptr noundef nonnull align 8 dereferenceable(32) %15, i32 noundef 175)
          to label %125 unwind label %134

125:                                              ; preds = %124
  store i1 false, ptr %17, align 1
  invoke void @__cxa_throw(ptr %121, ptr @_ZTIN5Ipopt23DYNAMIC_LIBRARY_FAILUREE, ptr @_ZN5Ipopt23DYNAMIC_LIBRARY_FAILURED2Ev) #11
          to label %150 unwind label %134

126:                                              ; preds = %120
  %127 = landingpad { ptr, i32 }
          cleanup
  %128 = extractvalue { ptr, i32 } %127, 0
  store ptr %128, ptr %13, align 8
  %129 = extractvalue { ptr, i32 } %127, 1
  store i32 %129, ptr %14, align 4
  br label %139

130:                                              ; preds = %123
  %131 = landingpad { ptr, i32 }
          cleanup
  %132 = extractvalue { ptr, i32 } %131, 0
  store ptr %132, ptr %13, align 8
  %133 = extractvalue { ptr, i32 } %131, 1
  store i32 %133, ptr %14, align 4
  br label %138

134:                                              ; preds = %125, %124
  %135 = landingpad { ptr, i32 }
          cleanup
  %136 = extractvalue { ptr, i32 } %135, 0
  store ptr %136, ptr %13, align 8
  %137 = extractvalue { ptr, i32 } %135, 1
  store i32 %137, ptr %14, align 4
  call void @_ZNSt7__cxx1112basic_stringIcSt11char_traitsIcESaIcEED1Ev(ptr noundef nonnull align 8 dereferenceable(32) %15) #10
  br label %138

138:                                              ; preds = %134, %130
  call void @_ZNSaIcED1Ev(ptr noundef nonnull align 1 dereferenceable(1) %16) #10
  call void @_ZNSt7__cxx1112basic_stringIcSt11char_traitsIcESaIcEED1Ev(ptr noundef nonnull align 8 dereferenceable(32) %11) #10
  br label %139

139:                                              ; preds = %138, %126
  call void @_ZNSaIcED1Ev(ptr noundef nonnull align 1 dereferenceable(1) %12) #10
  %140 = load i1, ptr %17, align 1
  br i1 %140, label %141, label %142

141:                                              ; preds = %139
  call void @__cxa_free_exception(ptr %121) #10
  br label %142

142:                                              ; preds = %141, %139
  br label %145

143:                                              ; preds = %117
  %144 = load ptr, ptr %7, align 8
  ret ptr %144

145:                                              ; preds = %142
  %146 = load ptr, ptr %13, align 8
  %147 = load i32, ptr %14, align 4
  %148 = insertvalue { ptr, i32 } poison, ptr %146, 0
  %149 = insertvalue { ptr, i32 } %148, i32 %147, 1
  resume { ptr, i32 } %149

150:                                              ; preds = %125
  unreachable
}