; Function Attrs: mustprogress uwtable
define noundef nonnull ptr @_ZN5Ipopt13LibraryLoader10loadSymbolERKNSt7__cxx1112basic_stringIcSt11char_traitsIcESaIcEEE(ptr noundef nonnull align 8 dereferenceable(56) %0, ptr noundef nonnull align 8 dereferenceable(32) %1) local_unnamed_addr #0 align 2 personality ptr @__gxx_personality_v0 {
  %3 = alloca %"class.std::__cxx11::basic_string", align 8
  %4 = alloca %"class.std::allocator", align 1
  %5 = alloca %"class.std::__cxx11::basic_string", align 8
  %6 = alloca %"class.std::allocator", align 1
  %7 = getelementptr inbounds i8, ptr %0, i64 48
  %8 = load ptr, ptr %7, align 8
  %9 = icmp eq ptr %8, null
  br i1 %9, label %10, label %11

10:                                               ; preds = %2
  tail call void @_ZN5Ipopt13LibraryLoader11loadLibraryEv(ptr noundef nonnull align 8 dereferenceable(56) %0)
  br label %11

11:                                               ; preds = %10, %2
  %12 = tail call noundef i64 @_ZNKSt7__cxx1112basic_stringIcSt11char_traitsIcESaIcEE4sizeEv(ptr noundef nonnull align 8 dereferenceable(32) %1) #11
  %13 = tail call noundef i64 @_ZNKSt7__cxx1112basic_stringIcSt11char_traitsIcESaIcEE4sizeEv(ptr noundef nonnull align 8 dereferenceable(32) %1) #11
  %14 = add i64 %13, 2
  %15 = tail call noalias noundef nonnull ptr @_Znam(i64 noundef %14) #13
  %16 = getelementptr inbounds i8, ptr %15, i64 %12
  %.not79 = icmp eq i64 %12, 0
  %17 = getelementptr i8, ptr %16, i64 1
  %18 = add i64 %12, 1
  br i1 %.not79, label %.split.split, label %.split.us.split.us

.split.us.split.us:                               ; preds = %11, %19
  %.04664.us.us = phi i32 [ %20, %19 ], [ 1, %11 ]
  switch i32 %.04664.us.us, label %..loopexit_crit_edge.us.us [
    i32 1, label %36
    i32 2, label %35
    i32 3, label %.preheader.us.us
    i32 4, label %28
    i32 5, label %.preheader60.us.us
    i32 6, label %21
  ]

19:                                               ; preds = %..loopexit_crit_edge.us.us
  %20 = add nuw nsw i32 %.04664.us.us, 1
  %exitcond86.not = icmp eq i32 %20, 7
  br i1 %exitcond86.not, label %.split66.us, label %.split.us.split.us, !llvm.loop !4

21:                                               ; preds = %.split.us.split.us
  store i8 0, ptr %16, align 1
  br label %..loopexit_crit_edge.us.us

.preheader60.us.us:                               ; preds = %.split.us.split.us, %.preheader60.us.us
  %.04461.us.us = phi i64 [ %27, %.preheader60.us.us ], [ 0, %.split.us.split.us ]
  %22 = getelementptr inbounds i8, ptr %15, i64 %.04461.us.us
  %23 = load i8, ptr %22, align 1
  %24 = sext i8 %23 to i32
  %25 = tail call i32 @toupper(i32 noundef %24) #14
  %26 = trunc i32 %25 to i8
  store i8 %26, ptr %22, align 1
  %27 = add nuw i64 %.04461.us.us, 1
  %exitcond.not = icmp eq i64 %27, %12
  br i1 %exitcond.not, label %._crit_edge.us.us, label %.preheader60.us.us, !llvm.loop !6

28:                                               ; preds = %.split.us.split.us
  store i8 0, ptr %16, align 1
  br label %..loopexit_crit_edge.us.us

.preheader.us.us:                                 ; preds = %.split.us.split.us, %.preheader.us.us
  %.04562.us.us = phi i64 [ %34, %.preheader.us.us ], [ 0, %.split.us.split.us ]
  %29 = getelementptr inbounds i8, ptr %15, i64 %.04562.us.us
  %30 = load i8, ptr %29, align 1
  %31 = sext i8 %30 to i32
  %32 = tail call i32 @tolower(i32 noundef %31) #14
  %33 = trunc i32 %32 to i8
  store i8 %33, ptr %29, align 1
  %34 = add nuw i64 %.04562.us.us, 1
  %exitcond85.not = icmp eq i64 %34, %12
  br i1 %exitcond85.not, label %..loopexit_crit_edge.us.us, label %.preheader.us.us, !llvm.loop !7

35:                                               ; preds = %.split.us.split.us
  store i8 95, ptr %16, align 1
  store i8 0, ptr %17, align 1
  br label %..loopexit_crit_edge.us.us

36:                                               ; preds = %.split.us.split.us
  %37 = tail call noundef ptr @_ZNKSt7__cxx1112basic_stringIcSt11char_traitsIcESaIcEE5c_strEv(ptr noundef nonnull align 8 dereferenceable(32) %1) #11
  tail call void @llvm.memcpy.p0.p0.i64(ptr nonnull align 1 %15, ptr align 1 %37, i64 %18, i1 false)
  br label %..loopexit_crit_edge.us.us

..loopexit_crit_edge.us.us:                       ; preds = %.preheader.us.us, %36, %35, %28, %._crit_edge.us.us, %21, %.split.us.split.us
  %38 = load ptr, ptr %7, align 8
  %39 = tail call ptr @dlsym(ptr noundef %38, ptr noundef nonnull %15) #11
  %.not.us.us = icmp eq ptr %39, null
  br i1 %.not.us.us, label %19, label %.split68.us

._crit_edge.us.us:                                ; preds = %.preheader60.us.us
  store i8 95, ptr %16, align 1
  br label %..loopexit_crit_edge.us.us

40:                                               ; preds = %.preheader
  %41 = add nuw nsw i32 %.04664, 1
  %exitcond87.not = icmp eq i32 %41, 7
  br i1 %exitcond87.not, label %.split66.us, label %.split.split, !llvm.loop !4

.split.split:                                     ; preds = %11, %40
  %.04664 = phi i32 [ %41, %40 ], [ 1, %11 ]
  switch i32 %.04664, label %.preheader [
    i32 1, label %42
    i32 2, label %44
    i32 6, label %46
    i32 4, label %45
    i32 5, label %.preheader60
  ]

.preheader60:                                     ; preds = %.split.split
  store i8 95, ptr %16, align 1
  br label %.preheader

42:                                               ; preds = %.split.split
  %43 = tail call noundef ptr @_ZNKSt7__cxx1112basic_stringIcSt11char_traitsIcESaIcEE5c_strEv(ptr noundef nonnull align 8 dereferenceable(32) %1) #11
  tail call void @llvm.memcpy.p0.p0.i64(ptr nonnull align 1 %15, ptr align 1 %43, i64 %18, i1 false)
  br label %.preheader

44:                                               ; preds = %.split.split
  store i8 95, ptr %16, align 1
  store i8 0, ptr %17, align 1
  br label %.preheader

45:                                               ; preds = %.split.split
  store i8 0, ptr %16, align 1
  br label %.preheader

46:                                               ; preds = %.split.split
  store i8 0, ptr %16, align 1
  br label %.preheader

.preheader:                                       ; preds = %.split.split, %46, %.preheader60, %45, %44, %42
  %47 = load ptr, ptr %7, align 8
  %48 = tail call ptr @dlsym(ptr noundef %47, ptr noundef nonnull %15) #11
  %.not = icmp eq ptr %48, null
  br i1 %.not, label %40, label %.split68.us

.split66.us:                                      ; preds = %19, %40
  tail call void @_ZdaPv(ptr noundef nonnull %15) #15
  %49 = tail call ptr @__cxa_allocate_exception(i64 112) #11
  %50 = tail call ptr @dlerror() #11
  call void @_ZNSaIcEC1Ev(ptr noundef nonnull align 1 dereferenceable(1) %4) #11
  invoke void @_ZNSt7__cxx1112basic_stringIcSt11char_traitsIcESaIcEEC2IS3_EEPKcRKS3_(ptr noundef nonnull align 8 dereferenceable(32) %3, ptr noundef %50, ptr noundef nonnull align 1 dereferenceable(1) %4)
          to label %51 unwind label %.thread55

51:                                               ; preds = %.split66.us
  call void @_ZNSaIcEC1Ev(ptr noundef nonnull align 1 dereferenceable(1) %6) #11
  invoke void @_ZNSt7__cxx1112basic_stringIcSt11char_traitsIcESaIcEEC2IS3_EEPKcRKS3_(ptr noundef nonnull align 8 dereferenceable(32) %5, ptr noundef nonnull @.str.1, ptr noundef nonnull align 1 dereferenceable(1) %6)
          to label %52 unwind label %55

52:                                               ; preds = %51
  invoke void @_ZN5Ipopt23DYNAMIC_LIBRARY_FAILUREC2ERKNSt7__cxx1112basic_stringIcSt11char_traitsIcESaIcEEES8_i(ptr noundef nonnull align 8 dereferenceable(112) %49, ptr noundef nonnull align 8 dereferenceable(32) %3, ptr noundef nonnull align 8 dereferenceable(32) %5, i32 noundef 175)
          to label %53 unwind label %57

53:                                               ; preds = %52
  invoke void @__cxa_throw(ptr nonnull %49, ptr nonnull @_ZTIN5Ipopt23DYNAMIC_LIBRARY_FAILUREE, ptr nonnull @_ZN5Ipopt23DYNAMIC_LIBRARY_FAILURED2Ev) #12
          to label %62 unwind label %57

.thread55:                                        ; preds = %.split66.us
  %54 = landingpad { ptr, i32 }
          cleanup
  call void @_ZNSaIcED1Ev(ptr noundef nonnull align 1 dereferenceable(1) %4) #11
  br label %60

55:                                               ; preds = %51
  %56 = landingpad { ptr, i32 }
          cleanup
  br label %59

57:                                               ; preds = %53, %52
  %.0 = phi i1 [ false, %53 ], [ true, %52 ]
  %58 = landingpad { ptr, i32 }
          cleanup
  call void @_ZNSt7__cxx1112basic_stringIcSt11char_traitsIcESaIcEED1Ev(ptr noundef nonnull align 8 dereferenceable(32) %5) #11
  br label %59

59:                                               ; preds = %55, %57
  %.pn = phi { ptr, i32 } [ %58, %57 ], [ %56, %55 ]
  %.1 = phi i1 [ %.0, %57 ], [ true, %55 ]
  call void @_ZNSaIcED1Ev(ptr noundef nonnull align 1 dereferenceable(1) %6) #11
  call void @_ZNSt7__cxx1112basic_stringIcSt11char_traitsIcESaIcEED1Ev(ptr noundef nonnull align 8 dereferenceable(32) %3) #11
  call void @_ZNSaIcED1Ev(ptr noundef nonnull align 1 dereferenceable(1) %4) #11
  br i1 %.1, label %60, label %61

60:                                               ; preds = %.thread55, %59
  %.pn.pn59 = phi { ptr, i32 } [ %54, %.thread55 ], [ %.pn, %59 ]
  call void @__cxa_free_exception(ptr %49) #11
  br label %61

.split68.us:                                      ; preds = %..loopexit_crit_edge.us.us, %.preheader
  %.us-phi = phi ptr [ %48, %.preheader ], [ %39, %..loopexit_crit_edge.us.us ]
  tail call void @_ZdaPv(ptr noundef nonnull %15) #15
  ret ptr %.us-phi

61:                                               ; preds = %59, %60
  %.pn.pn58 = phi { ptr, i32 } [ %.pn, %59 ], [ %.pn.pn59, %60 ]
  resume { ptr, i32 } %.pn.pn58

62:                                               ; preds = %53
  unreachable
}